target datalayout = "e-m:e-p270:32:32-p271:32:32-p272:64:64-i64:64-i128:128-f80:128-n8:16:32:64-S128"
target triple = "x86_64-pc-linux-gnu"

%"class.llvm::IVUsers" = type { ptr, ptr, ptr, ptr, ptr, %"class.llvm::SmallPtrSet", %"class.llvm::iplist", %"class.llvm::SmallPtrSet.0" }
%"class.llvm::SmallPtrSet" = type { %"class.llvm::SmallPtrSetImpl.base", [16 x ptr] }
%"class.llvm::SmallPtrSetImpl.base" = type { %"class.llvm::SmallPtrSetImplBase.base" }
%"class.llvm::SmallPtrSetImplBase.base" = type <{ ptr, ptr, i32, i32, i32 }>
%"class.llvm::iplist" = type { %"class.llvm::iplist_impl" }
%"class.llvm::iplist_impl" = type { %"class.llvm::simple_ilist" }
%"class.llvm::simple_ilist" = type { %"class.llvm::ilist_sentinel" }
%"class.llvm::ilist_sentinel" = type { %"class.llvm::ilist_node_impl" }
%"class.llvm::ilist_node_impl" = type { %"class.llvm::ilist_node_base" }
%"class.llvm::ilist_node_base" = type { %"class.llvm::ilist_detail::node_base_prevnext" }
%"class.llvm::ilist_detail::node_base_prevnext" = type { ptr, ptr }
%"class.llvm::SmallPtrSet.0" = type { %"class.llvm::SmallPtrSetImpl.base.2", [32 x ptr] }
%"class.llvm::SmallPtrSetImpl.base.2" = type { %"class.llvm::SmallPtrSetImplBase.base" }
%"class.llvm::IVStrideUse" = type { %"class.llvm::CallbackVH", %"class.llvm::ilist_node.152", ptr, %"class.llvm::WeakTrackingVH", %"class.llvm::SmallPtrSet.153" }
%"class.llvm::CallbackVH" = type { ptr, %"class.llvm::ValueHandleBase" }
%"class.llvm::ValueHandleBase" = type { %"class.llvm::PointerIntPair", ptr, ptr }
%"class.llvm::PointerIntPair" = type { %"struct.llvm::detail::PunnedPointer" }
%"struct.llvm::detail::PunnedPointer" = type { [8 x i8] }
%"class.llvm::ilist_node.152" = type { %"class.llvm::ilist_node_impl" }
%"class.llvm::WeakTrackingVH" = type { %"class.llvm::ValueHandleBase" }
%"class.llvm::SmallPtrSet.153" = type { %"class.llvm::SmallPtrSetImpl.base.155", [2 x ptr] }
%"class.llvm::SmallPtrSetImpl.base.155" = type { %"class.llvm::SmallPtrSetImplBase.base" }

; Function Attrs: mustprogress nounwind uwtable
define linkonce_odr hidden noundef ptr @_ZNK4llvm15ValueHandleBase9getValPtrEv(ptr noundef nonnull align 8 dereferenceable(24) %0) #0 comdat align 2 {
  %2 = alloca ptr, align 8
  store ptr %0, ptr %2, align 8
  %3 = load ptr, ptr %2, align 8
  %4 = getelementptr inbounds nuw %"class.llvm::ValueHandleBase", ptr %3, i32 0, i32 2
  %5 = load ptr, ptr %4, align 8
  ret ptr %5
}

; Function Attrs: mustprogress nounwind uwtable
define linkonce_odr hidden noundef ptr @_ZNK4llvm14WeakTrackingVHcvPNS_5ValueEEv(ptr noundef nonnull align 8 dereferenceable(24) %0) #0 comdat align 2 {
  %2 = alloca ptr, align 8
  store ptr %0, ptr %2, align 8
  %3 = load ptr, ptr %2, align 8
  %4 = call noundef ptr @_ZNK4llvm15ValueHandleBase9getValPtrEv(ptr noundef nonnull align 8 dereferenceable(24) %3)
  ret ptr %4
}

; Function Attrs: mustprogress nounwind uwtable
define linkonce_odr hidden noundef ptr @_ZNK4llvm11IVStrideUse22getOperandValToReplaceEv(ptr noundef nonnull align 8 dereferenceable(128) %0) #0 comdat align 2 {
  %2 = alloca ptr, align 8
  store ptr %0, ptr %2, align 8
  %3 = load ptr, ptr %2, align 8
  %4 = getelementptr inbounds nuw %"class.llvm::IVStrideUse", ptr %3, i32 0, i32 3
  %5 = call noundef ptr @_ZNK4llvm14WeakTrackingVHcvPNS_5ValueEEv(ptr noundef nonnull align 8 dereferenceable(24) %4)
  ret ptr %5
}

; Function Attrs: mustprogress nounwind uwtable
define linkonce_odr hidden noundef nonnull align 8 dereferenceable(48) ptr @_ZNK4llvm11IVStrideUse15getPostIncLoopsEv(ptr noundef nonnull align 8 dereferenceable(128) %0) #0 comdat align 2 {
  %2 = alloca ptr, align 8
  store ptr %0, ptr %2, align 8
  %3 = load ptr, ptr %2, align 8
  %4 = getelementptr inbounds nuw %"class.llvm::IVStrideUse", ptr %3, i32 0, i32 4
  ret ptr %4
}

; Function Attrs: mustprogress nounwind uwtable
define dso_local noundef ptr @_ZNK4llvm7IVUsers18getReplacementExprERKNS_11IVStrideUseE(ptr noundef nonnull align 8 dereferenceable(504) %0, ptr noundef nonnull align 8 dereferenceable(128) %1) #0 align 2 {
  %3 = alloca ptr, align 8
  %4 = alloca ptr, align 8
  store ptr %0, ptr %3, align 8
  store ptr %1, ptr %4, align 8
  %5 = load ptr, ptr %3, align 8
  %6 = getelementptr inbounds nuw %"class.llvm::IVUsers", ptr %5, i32 0, i32 4
  %7 = load ptr, ptr %6, align 8
  %8 = load ptr, ptr %4, align 8
  %9 = call noundef ptr @_ZNK4llvm11IVStrideUse22getOperandValToReplaceEv(ptr noundef nonnull align 8 dereferenceable(128) %8)
  %10 = call noundef ptr @_ZN4llvm15ScalarEvolution7getSCEVEPNS_5ValueE(ptr noundef nonnull align 8 dereferenceable(1392) %7, ptr noundef %9)
  ret ptr %10
}

; Function Attrs: mustprogress nounwind uwtable
define dso_local noundef ptr @_ZNK4llvm7IVUsers7getExprERKNS_11IVStrideUseE(ptr noundef nonnull align 8 dereferenceable(504) %0, ptr noundef nonnull align 8 dereferenceable(128) %1) #0 align 2 {
  %3 = alloca ptr, align 8
  %4 = alloca ptr, align 8
  %5 = alloca ptr, align 8
  store ptr %0, ptr %3, align 8
  store ptr %1, ptr %4, align 8
  %6 = load ptr, ptr %3, align 8
  %7 = load ptr, ptr %4, align 8
  %8 = call noundef ptr @_ZNK4llvm7IVUsers18getReplacementExprERKNS_11IVStrideUseE(ptr noundef nonnull align 8 dereferenceable(504) %6, ptr noundef nonnull align 8 dereferenceable(128) %7)
  store ptr %8, ptr %5, align 8
  %9 = load ptr, ptr %5, align 8
  %10 = load ptr, ptr %4, align 8
  %11 = call noundef nonnull align 8 dereferenceable(48) ptr @_ZNK4llvm11IVStrideUse15getPostIncLoopsEv(ptr noundef nonnull align 8 dereferenceable(128) %10)
  %12 = getelementptr inbounds nuw %"class.llvm::IVUsers", ptr %6, i32 0, i32 4
  %13 = load ptr, ptr %12, align 8
  %14 = call noundef ptr @_ZN4llvm22normalizeForPostIncUseEPKNS_4SCEVERKNS_11SmallPtrSetIPKNS_4LoopELj2EEERNS_15ScalarEvolutionEb(ptr noundef %9, ptr noundef nonnull align 8 dereferenceable(48) %11, ptr noundef nonnull align 8 dereferenceable(1392) %13, i1 noundef zeroext true)
  ret ptr %14
}