; Function Attrs: mustprogress nounwind uwtable
define dso_local noundef ptr @_ZNK4llvm7IVUsers7getExprERKNS_11IVStrideUseE(ptr nocapture noundef nonnull readonly align 8 dereferenceable(504) %0, ptr noundef nonnull align 8 dereferenceable(128) %1) local_unnamed_addr #0 align 2 {
  %3 = getelementptr inbounds nuw i8, ptr %0, i64 32
  %4 = load ptr, ptr %3, align 8
  %5 = getelementptr inbounds i8, ptr %1, i64 72
  %6 = load ptr, ptr %5, align 8
  %7 = tail call noundef ptr @_ZN4llvm15ScalarEvolution7getSCEVEPNS_5ValueE(ptr noundef nonnull align 8 dereferenceable(1392) %4, ptr noundef %6) #13
  %8 = getelementptr inbounds nuw i8, ptr %1, i64 80
  %9 = load ptr, ptr %3, align 8
  %10 = tail call noundef ptr @_ZN4llvm22normalizeForPostIncUseEPKNS_4SCEVERKNS_11SmallPtrSetIPKNS_4LoopELj2EEERNS_15ScalarEvolutionEb(ptr noundef %7, ptr noundef nonnull align 8 dereferenceable(48) %8, ptr noundef nonnull align 8 dereferenceable(1392) %9, i1 noundef zeroext true) #13
  ret ptr %10
}